/*
 * Copyright (c) 2008-2025 Jonathan Schleifer <js@nil.im>
 *
 * All rights reserved.
 *
 * This program is free software: you can redistribute it and/or modify it
 * under the terms of the GNU Lesser General Public License version 3.0 only,
 * as published by the Free Software Foundation.
 *
 * This program is distributed in the hope that it will be useful, but WITHOUT
 * ANY WARRANTY; without even the implied warranty of MERCHANTABILITY or
 * FITNESS FOR A PARTICULAR PURPOSE. See the GNU Lesser General Public License
 * version 3.0 for more details.
 *
 * You should have received a copy of the GNU Lesser General Public License
 * version 3.0 along with this program. If not, see
 * <https://www.gnu.org/licenses/>.
 */

/* This file is automatically generated from amiga-library.xml */

#include "config.h"

.section .text

.globl glue_objc_init
glue_objc_init:
.cfi_startproc
	stwu	%r1, -16(%r1)
.cfi_def_cfa_offset 16
	mflr	%r0
	stw	%r0, 20(%r1)
.cfi_offset 65, 4
	stw	%r13, 12(%r1)
.cfi_offset 13, -4
	lwz	%r13, 44(%r12)
	bl	objc_init
	lwz	%r13, 12(%r1)
	lwz	%r0, 20(%r1)
	addi	%r1, %r1, 16
.cfi_def_cfa_offset 0
	mtlr	%r0
.cfi_restore 65
	blr
.cfi_endproc
.type glue_objc_init, @function
.size glue_objc_init, .-glue_objc_init

.globl glue___objc_exec_class
glue___objc_exec_class:
.cfi_startproc
	stwu	%r1, -16(%r1)
.cfi_def_cfa_offset 16
	mflr	%r0
	stw	%r0, 20(%r1)
.cfi_offset 65, 4
	stw	%r13, 12(%r1)
.cfi_offset 13, -4
	lwz	%r13, 44(%r12)
	bl	__objc_exec_class
	lwz	%r13, 12(%r1)
	lwz	%r0, 20(%r1)
	addi	%r1, %r1, 16
.cfi_def_cfa_offset 0
	mtlr	%r0
.cfi_restore 65
	blr
.cfi_endproc
.type glue___objc_exec_class, @function
.size glue___objc_exec_class, .-glue___objc_exec_class

.globl glue___gnu_objc_personality_v0
glue___gnu_objc_personality_v0:
.cfi_startproc
	stwu	%r1, -16(%r1)
.cfi_def_cfa_offset 16
	mflr	%r0
	stw	%r0, 20(%r1)
.cfi_offset 65, 4
	stw	%r13, 12(%r1)
.cfi_offset 13, -4
	lwz	%r13, 44(%r12)
	bl	__gnu_objc_personality_v0
	lwz	%r13, 12(%r1)
	lwz	%r0, 20(%r1)
	addi	%r1, %r1, 16
.cfi_def_cfa_offset 0
	mtlr	%r0
.cfi_restore 65
	blr
.cfi_endproc
.type glue___gnu_objc_personality_v0, @function
.size glue___gnu_objc_personality_v0, .-glue___gnu_objc_personality_v0

.globl glue_class_registerAlias_np
glue_class_registerAlias_np:
.cfi_startproc
	stwu	%r1, -16(%r1)
.cfi_def_cfa_offset 16
	mflr	%r0
	stw	%r0, 20(%r1)
.cfi_offset 65, 4
	stw	%r13, 12(%r1)
.cfi_offset 13, -4
	lwz	%r13, 44(%r12)
	bl	class_registerAlias_np
	lwz	%r13, 12(%r1)
	lwz	%r0, 20(%r1)
	addi	%r1, %r1, 16
.cfi_def_cfa_offset 0
	mtlr	%r0
.cfi_restore 65
	blr
.cfi_endproc
.type glue_class_registerAlias_np, @function
.size glue_class_registerAlias_np, .-glue_class_registerAlias_np

.globl glue_objc_msg_lookup
glue_objc_msg_lookup:
.cfi_startproc
	stwu	%r1, -16(%r1)
.cfi_def_cfa_offset 16
	mflr	%r0
	stw	%r0, 20(%r1)
.cfi_offset 65, 4
	stw	%r13, 12(%r1)
.cfi_offset 13, -4
	lwz	%r13, 44(%r12)
	bl	objc_msg_lookup
	lwz	%r13, 12(%r1)
	lwz	%r0, 20(%r1)
	addi	%r1, %r1, 16
.cfi_def_cfa_offset 0
	mtlr	%r0
.cfi_restore 65
	blr
.cfi_endproc
.type glue_objc_msg_lookup, @function
.size glue_objc_msg_lookup, .-glue_objc_msg_lookup

.globl glue_objc_msg_lookup_stret
glue_objc_msg_lookup_stret:
.cfi_startproc
	stwu	%r1, -16(%r1)
.cfi_def_cfa_offset 16
	mflr	%r0
	stw	%r0, 20(%r1)
.cfi_offset 65, 4
	stw	%r13, 12(%r1)
.cfi_offset 13, -4
	lwz	%r13, 44(%r12)
	bl	objc_msg_lookup_stret
	lwz	%r13, 12(%r1)
	lwz	%r0, 20(%r1)
	addi	%r1, %r1, 16
.cfi_def_cfa_offset 0
	mtlr	%r0
.cfi_restore 65
	blr
.cfi_endproc
.type glue_objc_msg_lookup_stret, @function
.size glue_objc_msg_lookup_stret, .-glue_objc_msg_lookup_stret

.globl glue_objc_msg_lookup_super
glue_objc_msg_lookup_super:
.cfi_startproc
	stwu	%r1, -16(%r1)
.cfi_def_cfa_offset 16
	mflr	%r0
	stw	%r0, 20(%r1)
.cfi_offset 65, 4
	stw	%r13, 12(%r1)
.cfi_offset 13, -4
	lwz	%r13, 44(%r12)
	bl	objc_msg_lookup_super
	lwz	%r13, 12(%r1)
	lwz	%r0, 20(%r1)
	addi	%r1, %r1, 16
.cfi_def_cfa_offset 0
	mtlr	%r0
.cfi_restore 65
	blr
.cfi_endproc
.type glue_objc_msg_lookup_super, @function
.size glue_objc_msg_lookup_super, .-glue_objc_msg_lookup_super

.globl glue_objc_msg_lookup_super_stret
glue_objc_msg_lookup_super_stret:
.cfi_startproc
	stwu	%r1, -16(%r1)
.cfi_def_cfa_offset 16
	mflr	%r0
	stw	%r0, 20(%r1)
.cfi_offset 65, 4
	stw	%r13, 12(%r1)
.cfi_offset 13, -4
	lwz	%r13, 44(%r12)
	bl	objc_msg_lookup_super_stret
	lwz	%r13, 12(%r1)
	lwz	%r0, 20(%r1)
	addi	%r1, %r1, 16
.cfi_def_cfa_offset 0
	mtlr	%r0
.cfi_restore 65
	blr
.cfi_endproc
.type glue_objc_msg_lookup_super_stret, @function
.size glue_objc_msg_lookup_super_stret, .-glue_objc_msg_lookup_super_stret

.globl glue_objc_lookUpClass
glue_objc_lookUpClass:
.cfi_startproc
	stwu	%r1, -16(%r1)
.cfi_def_cfa_offset 16
	mflr	%r0
	stw	%r0, 20(%r1)
.cfi_offset 65, 4
	stw	%r13, 12(%r1)
.cfi_offset 13, -4
	lwz	%r13, 44(%r12)
	bl	objc_lookUpClass
	lwz	%r13, 12(%r1)
	lwz	%r0, 20(%r1)
	addi	%r1, %r1, 16
.cfi_def_cfa_offset 0
	mtlr	%r0
.cfi_restore 65
	blr
.cfi_endproc
.type glue_objc_lookUpClass, @function
.size glue_objc_lookUpClass, .-glue_objc_lookUpClass

.globl glue_objc_getClass
glue_objc_getClass:
.cfi_startproc
	stwu	%r1, -16(%r1)
.cfi_def_cfa_offset 16
	mflr	%r0
	stw	%r0, 20(%r1)
.cfi_offset 65, 4
	stw	%r13, 12(%r1)
.cfi_offset 13, -4
	lwz	%r13, 44(%r12)
	bl	objc_getClass
	lwz	%r13, 12(%r1)
	lwz	%r0, 20(%r1)
	addi	%r1, %r1, 16
.cfi_def_cfa_offset 0
	mtlr	%r0
.cfi_restore 65
	blr
.cfi_endproc
.type glue_objc_getClass, @function
.size glue_objc_getClass, .-glue_objc_getClass

.globl glue_objc_getRequiredClass
glue_objc_getRequiredClass:
.cfi_startproc
	stwu	%r1, -16(%r1)
.cfi_def_cfa_offset 16
	mflr	%r0
	stw	%r0, 20(%r1)
.cfi_offset 65, 4
	stw	%r13, 12(%r1)
.cfi_offset 13, -4
	lwz	%r13, 44(%r12)
	bl	objc_getRequiredClass
	lwz	%r13, 12(%r1)
	lwz	%r0, 20(%r1)
	addi	%r1, %r1, 16
.cfi_def_cfa_offset 0
	mtlr	%r0
.cfi_restore 65
	blr
.cfi_endproc
.type glue_objc_getRequiredClass, @function
.size glue_objc_getRequiredClass, .-glue_objc_getRequiredClass

.globl glue_objc_lookup_class
glue_objc_lookup_class:
.cfi_startproc
	stwu	%r1, -16(%r1)
.cfi_def_cfa_offset 16
	mflr	%r0
	stw	%r0, 20(%r1)
.cfi_offset 65, 4
	stw	%r13, 12(%r1)
.cfi_offset 13, -4
	lwz	%r13, 44(%r12)
	bl	objc_lookup_class
	lwz	%r13, 12(%r1)
	lwz	%r0, 20(%r1)
	addi	%r1, %r1, 16
.cfi_def_cfa_offset 0
	mtlr	%r0
.cfi_restore 65
	blr
.cfi_endproc
.type glue_objc_lookup_class, @function
.size glue_objc_lookup_class, .-glue_objc_lookup_class

.globl glue_objc_get_class
glue_objc_get_class:
.cfi_startproc
	stwu	%r1, -16(%r1)
.cfi_def_cfa_offset 16
	mflr	%r0
	stw	%r0, 20(%r1)
.cfi_offset 65, 4
	stw	%r13, 12(%r1)
.cfi_offset 13, -4
	lwz	%r13, 44(%r12)
	bl	objc_get_class
	lwz	%r13, 12(%r1)
	lwz	%r0, 20(%r1)
	addi	%r1, %r1, 16
.cfi_def_cfa_offset 0
	mtlr	%r0
.cfi_restore 65
	blr
.cfi_endproc
.type glue_objc_get_class, @function
.size glue_objc_get_class, .-glue_objc_get_class

.globl glue_objc_exception_throw
glue_objc_exception_throw:
.cfi_startproc
	stwu	%r1, -16(%r1)
.cfi_def_cfa_offset 16
	mflr	%r0
	stw	%r0, 20(%r1)
.cfi_offset 65, 4
	stw	%r13, 12(%r1)
.cfi_offset 13, -4
	lwz	%r13, 44(%r12)
	bl	objc_exception_throw
	lwz	%r13, 12(%r1)
	lwz	%r0, 20(%r1)
	addi	%r1, %r1, 16
.cfi_def_cfa_offset 0
	mtlr	%r0
.cfi_restore 65
	blr
.cfi_endproc
.type glue_objc_exception_throw, @function
.size glue_objc_exception_throw, .-glue_objc_exception_throw

.globl glue_objc_sync_enter
glue_objc_sync_enter:
.cfi_startproc
	stwu	%r1, -16(%r1)
.cfi_def_cfa_offset 16
	mflr	%r0
	stw	%r0, 20(%r1)
.cfi_offset 65, 4
	stw	%r13, 12(%r1)
.cfi_offset 13, -4
	lwz	%r13, 44(%r12)
	bl	objc_sync_enter
	lwz	%r13, 12(%r1)
	lwz	%r0, 20(%r1)
	addi	%r1, %r1, 16
.cfi_def_cfa_offset 0
	mtlr	%r0
.cfi_restore 65
	blr
.cfi_endproc
.type glue_objc_sync_enter, @function
.size glue_objc_sync_enter, .-glue_objc_sync_enter

.globl glue_objc_sync_exit
glue_objc_sync_exit:
.cfi_startproc
	stwu	%r1, -16(%r1)
.cfi_def_cfa_offset 16
	mflr	%r0
	stw	%r0, 20(%r1)
.cfi_offset 65, 4
	stw	%r13, 12(%r1)
.cfi_offset 13, -4
	lwz	%r13, 44(%r12)
	bl	objc_sync_exit
	lwz	%r13, 12(%r1)
	lwz	%r0, 20(%r1)
	addi	%r1, %r1, 16
.cfi_def_cfa_offset 0
	mtlr	%r0
.cfi_restore 65
	blr
.cfi_endproc
.type glue_objc_sync_exit, @function
.size glue_objc_sync_exit, .-glue_objc_sync_exit

.globl glue_objc_getProperty
glue_objc_getProperty:
.cfi_startproc
	stwu	%r1, -16(%r1)
.cfi_def_cfa_offset 16
	mflr	%r0
	stw	%r0, 20(%r1)
.cfi_offset 65, 4
	stw	%r13, 12(%r1)
.cfi_offset 13, -4
	lwz	%r13, 44(%r12)
	bl	objc_getProperty
	lwz	%r13, 12(%r1)
	lwz	%r0, 20(%r1)
	addi	%r1, %r1, 16
.cfi_def_cfa_offset 0
	mtlr	%r0
.cfi_restore 65
	blr
.cfi_endproc
.type glue_objc_getProperty, @function
.size glue_objc_getProperty, .-glue_objc_getProperty

.globl glue_objc_setProperty
glue_objc_setProperty:
.cfi_startproc
	stwu	%r1, -16(%r1)
.cfi_def_cfa_offset 16
	mflr	%r0
	stw	%r0, 20(%r1)
.cfi_offset 65, 4
	stw	%r13, 12(%r1)
.cfi_offset 13, -4
	lwz	%r13, 44(%r12)
	bl	objc_setProperty
	lwz	%r13, 12(%r1)
	lwz	%r0, 20(%r1)
	addi	%r1, %r1, 16
.cfi_def_cfa_offset 0
	mtlr	%r0
.cfi_restore 65
	blr
.cfi_endproc
.type glue_objc_setProperty, @function
.size glue_objc_setProperty, .-glue_objc_setProperty

.globl glue_objc_getPropertyStruct
glue_objc_getPropertyStruct:
.cfi_startproc
	stwu	%r1, -16(%r1)
.cfi_def_cfa_offset 16
	mflr	%r0
	stw	%r0, 20(%r1)
.cfi_offset 65, 4
	stw	%r13, 12(%r1)
.cfi_offset 13, -4
	lwz	%r13, 44(%r12)
	bl	objc_getPropertyStruct
	lwz	%r13, 12(%r1)
	lwz	%r0, 20(%r1)
	addi	%r1, %r1, 16
.cfi_def_cfa_offset 0
	mtlr	%r0
.cfi_restore 65
	blr
.cfi_endproc
.type glue_objc_getPropertyStruct, @function
.size glue_objc_getPropertyStruct, .-glue_objc_getPropertyStruct

.globl glue_objc_setPropertyStruct
glue_objc_setPropertyStruct:
.cfi_startproc
	stwu	%r1, -16(%r1)
.cfi_def_cfa_offset 16
	mflr	%r0
	stw	%r0, 20(%r1)
.cfi_offset 65, 4
	stw	%r13, 12(%r1)
.cfi_offset 13, -4
	lwz	%r13, 44(%r12)
	bl	objc_setPropertyStruct
	lwz	%r13, 12(%r1)
	lwz	%r0, 20(%r1)
	addi	%r1, %r1, 16
.cfi_def_cfa_offset 0
	mtlr	%r0
.cfi_restore 65
	blr
.cfi_endproc
.type glue_objc_setPropertyStruct, @function
.size glue_objc_setPropertyStruct, .-glue_objc_setPropertyStruct

.globl glue_objc_enumerationMutation
glue_objc_enumerationMutation:
.cfi_startproc
	stwu	%r1, -16(%r1)
.cfi_def_cfa_offset 16
	mflr	%r0
	stw	%r0, 20(%r1)
.cfi_offset 65, 4
	stw	%r13, 12(%r1)
.cfi_offset 13, -4
	lwz	%r13, 44(%r12)
	bl	objc_enumerationMutation
	lwz	%r13, 12(%r1)
	lwz	%r0, 20(%r1)
	addi	%r1, %r1, 16
.cfi_def_cfa_offset 0
	mtlr	%r0
.cfi_restore 65
	blr
.cfi_endproc
.type glue_objc_enumerationMutation, @function
.size glue_objc_enumerationMutation, .-glue_objc_enumerationMutation

.globl glue_objc_retain
glue_objc_retain:
.cfi_startproc
	stwu	%r1, -16(%r1)
.cfi_def_cfa_offset 16
	mflr	%r0
	stw	%r0, 20(%r1)
.cfi_offset 65, 4
	stw	%r13, 12(%r1)
.cfi_offset 13, -4
	lwz	%r13, 44(%r12)
	bl	objc_retain
	lwz	%r13, 12(%r1)
	lwz	%r0, 20(%r1)
	addi	%r1, %r1, 16
.cfi_def_cfa_offset 0
	mtlr	%r0
.cfi_restore 65
	blr
.cfi_endproc
.type glue_objc_retain, @function
.size glue_objc_retain, .-glue_objc_retain

.globl glue_objc_retainBlock
glue_objc_retainBlock:
.cfi_startproc
	stwu	%r1, -16(%r1)
.cfi_def_cfa_offset 16
	mflr	%r0
	stw	%r0, 20(%r1)
.cfi_offset 65, 4
	stw	%r13, 12(%r1)
.cfi_offset 13, -4
	lwz	%r13, 44(%r12)
	bl	objc_retainBlock
	lwz	%r13, 12(%r1)
	lwz	%r0, 20(%r1)
	addi	%r1, %r1, 16
.cfi_def_cfa_offset 0
	mtlr	%r0
.cfi_restore 65
	blr
.cfi_endproc
.type glue_objc_retainBlock, @function
.size glue_objc_retainBlock, .-glue_objc_retainBlock

.globl glue_objc_retainAutorelease
glue_objc_retainAutorelease:
.cfi_startproc
	stwu	%r1, -16(%r1)
.cfi_def_cfa_offset 16
	mflr	%r0
	stw	%r0, 20(%r1)
.cfi_offset 65, 4
	stw	%r13, 12(%r1)
.cfi_offset 13, -4
	lwz	%r13, 44(%r12)
	bl	objc_retainAutorelease
	lwz	%r13, 12(%r1)
	lwz	%r0, 20(%r1)
	addi	%r1, %r1, 16
.cfi_def_cfa_offset 0
	mtlr	%r0
.cfi_restore 65
	blr
.cfi_endproc
.type glue_objc_retainAutorelease, @function
.size glue_objc_retainAutorelease, .-glue_objc_retainAutorelease

.globl glue_objc_release
glue_objc_release:
.cfi_startproc
	stwu	%r1, -16(%r1)
.cfi_def_cfa_offset 16
	mflr	%r0
	stw	%r0, 20(%r1)
.cfi_offset 65, 4
	stw	%r13, 12(%r1)
.cfi_offset 13, -4
	lwz	%r13, 44(%r12)
	bl	objc_release
	lwz	%r13, 12(%r1)
	lwz	%r0, 20(%r1)
	addi	%r1, %r1, 16
.cfi_def_cfa_offset 0
	mtlr	%r0
.cfi_restore 65
	blr
.cfi_endproc
.type glue_objc_release, @function
.size glue_objc_release, .-glue_objc_release

.globl glue_objc_autorelease
glue_objc_autorelease:
.cfi_startproc
	stwu	%r1, -16(%r1)
.cfi_def_cfa_offset 16
	mflr	%r0
	stw	%r0, 20(%r1)
.cfi_offset 65, 4
	stw	%r13, 12(%r1)
.cfi_offset 13, -4
	lwz	%r13, 44(%r12)
	bl	objc_autorelease
	lwz	%r13, 12(%r1)
	lwz	%r0, 20(%r1)
	addi	%r1, %r1, 16
.cfi_def_cfa_offset 0
	mtlr	%r0
.cfi_restore 65
	blr
.cfi_endproc
.type glue_objc_autorelease, @function
.size glue_objc_autorelease, .-glue_objc_autorelease

.globl glue_objc_autoreleaseReturnValue
glue_objc_autoreleaseReturnValue:
.cfi_startproc
	stwu	%r1, -16(%r1)
.cfi_def_cfa_offset 16
	mflr	%r0
	stw	%r0, 20(%r1)
.cfi_offset 65, 4
	stw	%r13, 12(%r1)
.cfi_offset 13, -4
	lwz	%r13, 44(%r12)
	bl	objc_autoreleaseReturnValue
	lwz	%r13, 12(%r1)
	lwz	%r0, 20(%r1)
	addi	%r1, %r1, 16
.cfi_def_cfa_offset 0
	mtlr	%r0
.cfi_restore 65
	blr
.cfi_endproc
.type glue_objc_autoreleaseReturnValue, @function
.size glue_objc_autoreleaseReturnValue, .-glue_objc_autoreleaseReturnValue

.globl glue_objc_retainAutoreleaseReturnValue
glue_objc_retainAutoreleaseReturnValue:
.cfi_startproc
	stwu	%r1, -16(%r1)
.cfi_def_cfa_offset 16
	mflr	%r0
	stw	%r0, 20(%r1)
.cfi_offset 65, 4
	stw	%r13, 12(%r1)
.cfi_offset 13, -4
	lwz	%r13, 44(%r12)
	bl	objc_retainAutoreleaseReturnValue
	lwz	%r13, 12(%r1)
	lwz	%r0, 20(%r1)
	addi	%r1, %r1, 16
.cfi_def_cfa_offset 0
	mtlr	%r0
.cfi_restore 65
	blr
.cfi_endproc
.type glue_objc_retainAutoreleaseReturnValue, @function
.size glue_objc_retainAutoreleaseReturnValue, .-glue_objc_retainAutoreleaseReturnValue

.globl glue_objc_retainAutoreleasedReturnValue
glue_objc_retainAutoreleasedReturnValue:
.cfi_startproc
	stwu	%r1, -16(%r1)
.cfi_def_cfa_offset 16
	mflr	%r0
	stw	%r0, 20(%r1)
.cfi_offset 65, 4
	stw	%r13, 12(%r1)
.cfi_offset 13, -4
	lwz	%r13, 44(%r12)
	bl	objc_retainAutoreleasedReturnValue
	lwz	%r13, 12(%r1)
	lwz	%r0, 20(%r1)
	addi	%r1, %r1, 16
.cfi_def_cfa_offset 0
	mtlr	%r0
.cfi_restore 65
	blr
.cfi_endproc
.type glue_objc_retainAutoreleasedReturnValue, @function
.size glue_objc_retainAutoreleasedReturnValue, .-glue_objc_retainAutoreleasedReturnValue

.globl glue_objc_storeStrong
glue_objc_storeStrong:
.cfi_startproc
	stwu	%r1, -16(%r1)
.cfi_def_cfa_offset 16
	mflr	%r0
	stw	%r0, 20(%r1)
.cfi_offset 65, 4
	stw	%r13, 12(%r1)
.cfi_offset 13, -4
	lwz	%r13, 44(%r12)
	bl	objc_storeStrong
	lwz	%r13, 12(%r1)
	lwz	%r0, 20(%r1)
	addi	%r1, %r1, 16
.cfi_def_cfa_offset 0
	mtlr	%r0
.cfi_restore 65
	blr
.cfi_endproc
.type glue_objc_storeStrong, @function
.size glue_objc_storeStrong, .-glue_objc_storeStrong

.globl glue_objc_storeWeak
glue_objc_storeWeak:
.cfi_startproc
	stwu	%r1, -16(%r1)
.cfi_def_cfa_offset 16
	mflr	%r0
	stw	%r0, 20(%r1)
.cfi_offset 65, 4
	stw	%r13, 12(%r1)
.cfi_offset 13, -4
	lwz	%r13, 44(%r12)
	bl	objc_storeWeak
	lwz	%r13, 12(%r1)
	lwz	%r0, 20(%r1)
	addi	%r1, %r1, 16
.cfi_def_cfa_offset 0
	mtlr	%r0
.cfi_restore 65
	blr
.cfi_endproc
.type glue_objc_storeWeak, @function
.size glue_objc_storeWeak, .-glue_objc_storeWeak

.globl glue_objc_loadWeakRetained
glue_objc_loadWeakRetained:
.cfi_startproc
	stwu	%r1, -16(%r1)
.cfi_def_cfa_offset 16
	mflr	%r0
	stw	%r0, 20(%r1)
.cfi_offset 65, 4
	stw	%r13, 12(%r1)
.cfi_offset 13, -4
	lwz	%r13, 44(%r12)
	bl	objc_loadWeakRetained
	lwz	%r13, 12(%r1)
	lwz	%r0, 20(%r1)
	addi	%r1, %r1, 16
.cfi_def_cfa_offset 0
	mtlr	%r0
.cfi_restore 65
	blr
.cfi_endproc
.type glue_objc_loadWeakRetained, @function
.size glue_objc_loadWeakRetained, .-glue_objc_loadWeakRetained

.globl glue_objc_initWeak
glue_objc_initWeak:
.cfi_startproc
	stwu	%r1, -16(%r1)
.cfi_def_cfa_offset 16
	mflr	%r0
	stw	%r0, 20(%r1)
.cfi_offset 65, 4
	stw	%r13, 12(%r1)
.cfi_offset 13, -4
	lwz	%r13, 44(%r12)
	bl	objc_initWeak
	lwz	%r13, 12(%r1)
	lwz	%r0, 20(%r1)
	addi	%r1, %r1, 16
.cfi_def_cfa_offset 0
	mtlr	%r0
.cfi_restore 65
	blr
.cfi_endproc
.type glue_objc_initWeak, @function
.size glue_objc_initWeak, .-glue_objc_initWeak

.globl glue_objc_destroyWeak
glue_objc_destroyWeak:
.cfi_startproc
	stwu	%r1, -16(%r1)
.cfi_def_cfa_offset 16
	mflr	%r0
	stw	%r0, 20(%r1)
.cfi_offset 65, 4
	stw	%r13, 12(%r1)
.cfi_offset 13, -4
	lwz	%r13, 44(%r12)
	bl	objc_destroyWeak
	lwz	%r13, 12(%r1)
	lwz	%r0, 20(%r1)
	addi	%r1, %r1, 16
.cfi_def_cfa_offset 0
	mtlr	%r0
.cfi_restore 65
	blr
.cfi_endproc
.type glue_objc_destroyWeak, @function
.size glue_objc_destroyWeak, .-glue_objc_destroyWeak

.globl glue_objc_loadWeak
glue_objc_loadWeak:
.cfi_startproc
	stwu	%r1, -16(%r1)
.cfi_def_cfa_offset 16
	mflr	%r0
	stw	%r0, 20(%r1)
.cfi_offset 65, 4
	stw	%r13, 12(%r1)
.cfi_offset 13, -4
	lwz	%r13, 44(%r12)
	bl	objc_loadWeak
	lwz	%r13, 12(%r1)
	lwz	%r0, 20(%r1)
	addi	%r1, %r1, 16
.cfi_def_cfa_offset 0
	mtlr	%r0
.cfi_restore 65
	blr
.cfi_endproc
.type glue_objc_loadWeak, @function
.size glue_objc_loadWeak, .-glue_objc_loadWeak

.globl glue_objc_copyWeak
glue_objc_copyWeak:
.cfi_startproc
	stwu	%r1, -16(%r1)
.cfi_def_cfa_offset 16
	mflr	%r0
	stw	%r0, 20(%r1)
.cfi_offset 65, 4
	stw	%r13, 12(%r1)
.cfi_offset 13, -4
	lwz	%r13, 44(%r12)
	bl	objc_copyWeak
	lwz	%r13, 12(%r1)
	lwz	%r0, 20(%r1)
	addi	%r1, %r1, 16
.cfi_def_cfa_offset 0
	mtlr	%r0
.cfi_restore 65
	blr
.cfi_endproc
.type glue_objc_copyWeak, @function
.size glue_objc_copyWeak, .-glue_objc_copyWeak

.globl glue_objc_moveWeak
glue_objc_moveWeak:
.cfi_startproc
	stwu	%r1, -16(%r1)
.cfi_def_cfa_offset 16
	mflr	%r0
	stw	%r0, 20(%r1)
.cfi_offset 65, 4
	stw	%r13, 12(%r1)
.cfi_offset 13, -4
	lwz	%r13, 44(%r12)
	bl	objc_moveWeak
	lwz	%r13, 12(%r1)
	lwz	%r0, 20(%r1)
	addi	%r1, %r1, 16
.cfi_def_cfa_offset 0
	mtlr	%r0
.cfi_restore 65
	blr
.cfi_endproc
.type glue_objc_moveWeak, @function
.size glue_objc_moveWeak, .-glue_objc_moveWeak

.globl glue_sel_registerName
glue_sel_registerName:
.cfi_startproc
	stwu	%r1, -16(%r1)
.cfi_def_cfa_offset 16
	mflr	%r0
	stw	%r0, 20(%r1)
.cfi_offset 65, 4
	stw	%r13, 12(%r1)
.cfi_offset 13, -4
	lwz	%r13, 44(%r12)
	bl	sel_registerName
	lwz	%r13, 12(%r1)
	lwz	%r0, 20(%r1)
	addi	%r1, %r1, 16
.cfi_def_cfa_offset 0
	mtlr	%r0
.cfi_restore 65
	blr
.cfi_endproc
.type glue_sel_registerName, @function
.size glue_sel_registerName, .-glue_sel_registerName

.globl glue_sel_getName
glue_sel_getName:
.cfi_startproc
	stwu	%r1, -16(%r1)
.cfi_def_cfa_offset 16
	mflr	%r0
	stw	%r0, 20(%r1)
.cfi_offset 65, 4
	stw	%r13, 12(%r1)
.cfi_offset 13, -4
	lwz	%r13, 44(%r12)
	bl	sel_getName
	lwz	%r13, 12(%r1)
	lwz	%r0, 20(%r1)
	addi	%r1, %r1, 16
.cfi_def_cfa_offset 0
	mtlr	%r0
.cfi_restore 65
	blr
.cfi_endproc
.type glue_sel_getName, @function
.size glue_sel_getName, .-glue_sel_getName

.globl glue_sel_isEqual
glue_sel_isEqual:
.cfi_startproc
	stwu	%r1, -16(%r1)
.cfi_def_cfa_offset 16
	mflr	%r0
	stw	%r0, 20(%r1)
.cfi_offset 65, 4
	stw	%r13, 12(%r1)
.cfi_offset 13, -4
	lwz	%r13, 44(%r12)
	bl	sel_isEqual
	lwz	%r13, 12(%r1)
	lwz	%r0, 20(%r1)
	addi	%r1, %r1, 16
.cfi_def_cfa_offset 0
	mtlr	%r0
.cfi_restore 65
	blr
.cfi_endproc
.type glue_sel_isEqual, @function
.size glue_sel_isEqual, .-glue_sel_isEqual

.globl glue_objc_allocateClassPair
glue_objc_allocateClassPair:
.cfi_startproc
	stwu	%r1, -16(%r1)
.cfi_def_cfa_offset 16
	mflr	%r0
	stw	%r0, 20(%r1)
.cfi_offset 65, 4
	stw	%r13, 12(%r1)
.cfi_offset 13, -4
	lwz	%r13, 44(%r12)
	bl	objc_allocateClassPair
	lwz	%r13, 12(%r1)
	lwz	%r0, 20(%r1)
	addi	%r1, %r1, 16
.cfi_def_cfa_offset 0
	mtlr	%r0
.cfi_restore 65
	blr
.cfi_endproc
.type glue_objc_allocateClassPair, @function
.size glue_objc_allocateClassPair, .-glue_objc_allocateClassPair

.globl glue_objc_registerClassPair
glue_objc_registerClassPair:
.cfi_startproc
	stwu	%r1, -16(%r1)
.cfi_def_cfa_offset 16
	mflr	%r0
	stw	%r0, 20(%r1)
.cfi_offset 65, 4
	stw	%r13, 12(%r1)
.cfi_offset 13, -4
	lwz	%r13, 44(%r12)
	bl	objc_registerClassPair
	lwz	%r13, 12(%r1)
	lwz	%r0, 20(%r1)
	addi	%r1, %r1, 16
.cfi_def_cfa_offset 0
	mtlr	%r0
.cfi_restore 65
	blr
.cfi_endproc
.type glue_objc_registerClassPair, @function
.size glue_objc_registerClassPair, .-glue_objc_registerClassPair

.globl glue_objc_getClassList
glue_objc_getClassList:
.cfi_startproc
	stwu	%r1, -16(%r1)
.cfi_def_cfa_offset 16
	mflr	%r0
	stw	%r0, 20(%r1)
.cfi_offset 65, 4
	stw	%r13, 12(%r1)
.cfi_offset 13, -4
	lwz	%r13, 44(%r12)
	bl	objc_getClassList
	lwz	%r13, 12(%r1)
	lwz	%r0, 20(%r1)
	addi	%r1, %r1, 16
.cfi_def_cfa_offset 0
	mtlr	%r0
.cfi_restore 65
	blr
.cfi_endproc
.type glue_objc_getClassList, @function
.size glue_objc_getClassList, .-glue_objc_getClassList

.globl glue_objc_copyClassList
glue_objc_copyClassList:
.cfi_startproc
	stwu	%r1, -16(%r1)
.cfi_def_cfa_offset 16
	mflr	%r0
	stw	%r0, 20(%r1)
.cfi_offset 65, 4
	stw	%r13, 12(%r1)
.cfi_offset 13, -4
	lwz	%r13, 44(%r12)
	bl	objc_copyClassList
	lwz	%r13, 12(%r1)
	lwz	%r0, 20(%r1)
	addi	%r1, %r1, 16
.cfi_def_cfa_offset 0
	mtlr	%r0
.cfi_restore 65
	blr
.cfi_endproc
.type glue_objc_copyClassList, @function
.size glue_objc_copyClassList, .-glue_objc_copyClassList

.globl glue_class_isMetaClass
glue_class_isMetaClass:
.cfi_startproc
	stwu	%r1, -16(%r1)
.cfi_def_cfa_offset 16
	mflr	%r0
	stw	%r0, 20(%r1)
.cfi_offset 65, 4
	stw	%r13, 12(%r1)
.cfi_offset 13, -4
	lwz	%r13, 44(%r12)
	bl	class_isMetaClass
	lwz	%r13, 12(%r1)
	lwz	%r0, 20(%r1)
	addi	%r1, %r1, 16
.cfi_def_cfa_offset 0
	mtlr	%r0
.cfi_restore 65
	blr
.cfi_endproc
.type glue_class_isMetaClass, @function
.size glue_class_isMetaClass, .-glue_class_isMetaClass

.globl glue_class_getName
glue_class_getName:
.cfi_startproc
	stwu	%r1, -16(%r1)
.cfi_def_cfa_offset 16
	mflr	%r0
	stw	%r0, 20(%r1)
.cfi_offset 65, 4
	stw	%r13, 12(%r1)
.cfi_offset 13, -4
	lwz	%r13, 44(%r12)
	bl	class_getName
	lwz	%r13, 12(%r1)
	lwz	%r0, 20(%r1)
	addi	%r1, %r1, 16
.cfi_def_cfa_offset 0
	mtlr	%r0
.cfi_restore 65
	blr
.cfi_endproc
.type glue_class_getName, @function
.size glue_class_getName, .-glue_class_getName

.globl glue_class_getSuperclass
glue_class_getSuperclass:
.cfi_startproc
	stwu	%r1, -16(%r1)
.cfi_def_cfa_offset 16
	mflr	%r0
	stw	%r0, 20(%r1)
.cfi_offset 65, 4
	stw	%r13, 12(%r1)
.cfi_offset 13, -4
	lwz	%r13, 44(%r12)
	bl	class_getSuperclass
	lwz	%r13, 12(%r1)
	lwz	%r0, 20(%r1)
	addi	%r1, %r1, 16
.cfi_def_cfa_offset 0
	mtlr	%r0
.cfi_restore 65
	blr
.cfi_endproc
.type glue_class_getSuperclass, @function
.size glue_class_getSuperclass, .-glue_class_getSuperclass

.globl glue_class_getInstanceSize
glue_class_getInstanceSize:
.cfi_startproc
	stwu	%r1, -16(%r1)
.cfi_def_cfa_offset 16
	mflr	%r0
	stw	%r0, 20(%r1)
.cfi_offset 65, 4
	stw	%r13, 12(%r1)
.cfi_offset 13, -4
	lwz	%r13, 44(%r12)
	bl	class_getInstanceSize
	lwz	%r13, 12(%r1)
	lwz	%r0, 20(%r1)
	addi	%r1, %r1, 16
.cfi_def_cfa_offset 0
	mtlr	%r0
.cfi_restore 65
	blr
.cfi_endproc
.type glue_class_getInstanceSize, @function
.size glue_class_getInstanceSize, .-glue_class_getInstanceSize

.globl glue_class_respondsToSelector
glue_class_respondsToSelector:
.cfi_startproc
	stwu	%r1, -16(%r1)
.cfi_def_cfa_offset 16
	mflr	%r0
	stw	%r0, 20(%r1)
.cfi_offset 65, 4
	stw	%r13, 12(%r1)
.cfi_offset 13, -4
	lwz	%r13, 44(%r12)
	bl	class_respondsToSelector
	lwz	%r13, 12(%r1)
	lwz	%r0, 20(%r1)
	addi	%r1, %r1, 16
.cfi_def_cfa_offset 0
	mtlr	%r0
.cfi_restore 65
	blr
.cfi_endproc
.type glue_class_respondsToSelector, @function
.size glue_class_respondsToSelector, .-glue_class_respondsToSelector

.globl glue_class_conformsToProtocol
glue_class_conformsToProtocol:
.cfi_startproc
	stwu	%r1, -16(%r1)
.cfi_def_cfa_offset 16
	mflr	%r0
	stw	%r0, 20(%r1)
.cfi_offset 65, 4
	stw	%r13, 12(%r1)
.cfi_offset 13, -4
	lwz	%r13, 44(%r12)
	bl	class_conformsToProtocol
	lwz	%r13, 12(%r1)
	lwz	%r0, 20(%r1)
	addi	%r1, %r1, 16
.cfi_def_cfa_offset 0
	mtlr	%r0
.cfi_restore 65
	blr
.cfi_endproc
.type glue_class_conformsToProtocol, @function
.size glue_class_conformsToProtocol, .-glue_class_conformsToProtocol

.globl glue_class_getMethodImplementation
glue_class_getMethodImplementation:
.cfi_startproc
	stwu	%r1, -16(%r1)
.cfi_def_cfa_offset 16
	mflr	%r0
	stw	%r0, 20(%r1)
.cfi_offset 65, 4
	stw	%r13, 12(%r1)
.cfi_offset 13, -4
	lwz	%r13, 44(%r12)
	bl	class_getMethodImplementation
	lwz	%r13, 12(%r1)
	lwz	%r0, 20(%r1)
	addi	%r1, %r1, 16
.cfi_def_cfa_offset 0
	mtlr	%r0
.cfi_restore 65
	blr
.cfi_endproc
.type glue_class_getMethodImplementation, @function
.size glue_class_getMethodImplementation, .-glue_class_getMethodImplementation

.globl glue_class_getMethodImplementation_stret
glue_class_getMethodImplementation_stret:
.cfi_startproc
	stwu	%r1, -16(%r1)
.cfi_def_cfa_offset 16
	mflr	%r0
	stw	%r0, 20(%r1)
.cfi_offset 65, 4
	stw	%r13, 12(%r1)
.cfi_offset 13, -4
	lwz	%r13, 44(%r12)
	bl	class_getMethodImplementation_stret
	lwz	%r13, 12(%r1)
	lwz	%r0, 20(%r1)
	addi	%r1, %r1, 16
.cfi_def_cfa_offset 0
	mtlr	%r0
.cfi_restore 65
	blr
.cfi_endproc
.type glue_class_getMethodImplementation_stret, @function
.size glue_class_getMethodImplementation_stret, .-glue_class_getMethodImplementation_stret

.globl glue_class_getInstanceMethod
glue_class_getInstanceMethod:
.cfi_startproc
	stwu	%r1, -16(%r1)
.cfi_def_cfa_offset 16
	mflr	%r0
	stw	%r0, 20(%r1)
.cfi_offset 65, 4
	stw	%r13, 12(%r1)
.cfi_offset 13, -4
	lwz	%r13, 44(%r12)
	bl	class_getInstanceMethod
	lwz	%r13, 12(%r1)
	lwz	%r0, 20(%r1)
	addi	%r1, %r1, 16
.cfi_def_cfa_offset 0
	mtlr	%r0
.cfi_restore 65
	blr
.cfi_endproc
.type glue_class_getInstanceMethod, @function
.size glue_class_getInstanceMethod, .-glue_class_getInstanceMethod

.globl glue_class_addMethod
glue_class_addMethod:
.cfi_startproc
	stwu	%r1, -16(%r1)
.cfi_def_cfa_offset 16
	mflr	%r0
	stw	%r0, 20(%r1)
.cfi_offset 65, 4
	stw	%r13, 12(%r1)
.cfi_offset 13, -4
	lwz	%r13, 44(%r12)
	bl	class_addMethod
	lwz	%r13, 12(%r1)
	lwz	%r0, 20(%r1)
	addi	%r1, %r1, 16
.cfi_def_cfa_offset 0
	mtlr	%r0
.cfi_restore 65
	blr
.cfi_endproc
.type glue_class_addMethod, @function
.size glue_class_addMethod, .-glue_class_addMethod

.globl glue_class_replaceMethod
glue_class_replaceMethod:
.cfi_startproc
	stwu	%r1, -16(%r1)
.cfi_def_cfa_offset 16
	mflr	%r0
	stw	%r0, 20(%r1)
.cfi_offset 65, 4
	stw	%r13, 12(%r1)
.cfi_offset 13, -4
	lwz	%r13, 44(%r12)
	bl	class_replaceMethod
	lwz	%r13, 12(%r1)
	lwz	%r0, 20(%r1)
	addi	%r1, %r1, 16
.cfi_def_cfa_offset 0
	mtlr	%r0
.cfi_restore 65
	blr
.cfi_endproc
.type glue_class_replaceMethod, @function
.size glue_class_replaceMethod, .-glue_class_replaceMethod

.globl glue_object_getClass
glue_object_getClass:
.cfi_startproc
	stwu	%r1, -16(%r1)
.cfi_def_cfa_offset 16
	mflr	%r0
	stw	%r0, 20(%r1)
.cfi_offset 65, 4
	stw	%r13, 12(%r1)
.cfi_offset 13, -4
	lwz	%r13, 44(%r12)
	bl	object_getClass
	lwz	%r13, 12(%r1)
	lwz	%r0, 20(%r1)
	addi	%r1, %r1, 16
.cfi_def_cfa_offset 0
	mtlr	%r0
.cfi_restore 65
	blr
.cfi_endproc
.type glue_object_getClass, @function
.size glue_object_getClass, .-glue_object_getClass

.globl glue_object_setClass
glue_object_setClass:
.cfi_startproc
	stwu	%r1, -16(%r1)
.cfi_def_cfa_offset 16
	mflr	%r0
	stw	%r0, 20(%r1)
.cfi_offset 65, 4
	stw	%r13, 12(%r1)
.cfi_offset 13, -4
	lwz	%r13, 44(%r12)
	bl	object_setClass
	lwz	%r13, 12(%r1)
	lwz	%r0, 20(%r1)
	addi	%r1, %r1, 16
.cfi_def_cfa_offset 0
	mtlr	%r0
.cfi_restore 65
	blr
.cfi_endproc
.type glue_object_setClass, @function
.size glue_object_setClass, .-glue_object_setClass

.globl glue_object_getClassName
glue_object_getClassName:
.cfi_startproc
	stwu	%r1, -16(%r1)
.cfi_def_cfa_offset 16
	mflr	%r0
	stw	%r0, 20(%r1)
.cfi_offset 65, 4
	stw	%r13, 12(%r1)
.cfi_offset 13, -4
	lwz	%r13, 44(%r12)
	bl	object_getClassName
	lwz	%r13, 12(%r1)
	lwz	%r0, 20(%r1)
	addi	%r1, %r1, 16
.cfi_def_cfa_offset 0
	mtlr	%r0
.cfi_restore 65
	blr
.cfi_endproc
.type glue_object_getClassName, @function
.size glue_object_getClassName, .-glue_object_getClassName

.globl glue_protocol_getName
glue_protocol_getName:
.cfi_startproc
	stwu	%r1, -16(%r1)
.cfi_def_cfa_offset 16
	mflr	%r0
	stw	%r0, 20(%r1)
.cfi_offset 65, 4
	stw	%r13, 12(%r1)
.cfi_offset 13, -4
	lwz	%r13, 44(%r12)
	bl	protocol_getName
	lwz	%r13, 12(%r1)
	lwz	%r0, 20(%r1)
	addi	%r1, %r1, 16
.cfi_def_cfa_offset 0
	mtlr	%r0
.cfi_restore 65
	blr
.cfi_endproc
.type glue_protocol_getName, @function
.size glue_protocol_getName, .-glue_protocol_getName

.globl glue_protocol_isEqual
glue_protocol_isEqual:
.cfi_startproc
	stwu	%r1, -16(%r1)
.cfi_def_cfa_offset 16
	mflr	%r0
	stw	%r0, 20(%r1)
.cfi_offset 65, 4
	stw	%r13, 12(%r1)
.cfi_offset 13, -4
	lwz	%r13, 44(%r12)
	bl	protocol_isEqual
	lwz	%r13, 12(%r1)
	lwz	%r0, 20(%r1)
	addi	%r1, %r1, 16
.cfi_def_cfa_offset 0
	mtlr	%r0
.cfi_restore 65
	blr
.cfi_endproc
.type glue_protocol_isEqual, @function
.size glue_protocol_isEqual, .-glue_protocol_isEqual

.globl glue_protocol_conformsToProtocol
glue_protocol_conformsToProtocol:
.cfi_startproc
	stwu	%r1, -16(%r1)
.cfi_def_cfa_offset 16
	mflr	%r0
	stw	%r0, 20(%r1)
.cfi_offset 65, 4
	stw	%r13, 12(%r1)
.cfi_offset 13, -4
	lwz	%r13, 44(%r12)
	bl	protocol_conformsToProtocol
	lwz	%r13, 12(%r1)
	lwz	%r0, 20(%r1)
	addi	%r1, %r1, 16
.cfi_def_cfa_offset 0
	mtlr	%r0
.cfi_restore 65
	blr
.cfi_endproc
.type glue_protocol_conformsToProtocol, @function
.size glue_protocol_conformsToProtocol, .-glue_protocol_conformsToProtocol

.globl glue_class_copyMethodList
glue_class_copyMethodList:
.cfi_startproc
	stwu	%r1, -16(%r1)
.cfi_def_cfa_offset 16
	mflr	%r0
	stw	%r0, 20(%r1)
.cfi_offset 65, 4
	stw	%r13, 12(%r1)
.cfi_offset 13, -4
	lwz	%r13, 44(%r12)
	bl	class_copyMethodList
	lwz	%r13, 12(%r1)
	lwz	%r0, 20(%r1)
	addi	%r1, %r1, 16
.cfi_def_cfa_offset 0
	mtlr	%r0
.cfi_restore 65
	blr
.cfi_endproc
.type glue_class_copyMethodList, @function
.size glue_class_copyMethodList, .-glue_class_copyMethodList

.globl glue_method_getName
glue_method_getName:
.cfi_startproc
	stwu	%r1, -16(%r1)
.cfi_def_cfa_offset 16
	mflr	%r0
	stw	%r0, 20(%r1)
.cfi_offset 65, 4
	stw	%r13, 12(%r1)
.cfi_offset 13, -4
	lwz	%r13, 44(%r12)
	bl	method_getName
	lwz	%r13, 12(%r1)
	lwz	%r0, 20(%r1)
	addi	%r1, %r1, 16
.cfi_def_cfa_offset 0
	mtlr	%r0
.cfi_restore 65
	blr
.cfi_endproc
.type glue_method_getName, @function
.size glue_method_getName, .-glue_method_getName

.globl glue_method_getTypeEncoding
glue_method_getTypeEncoding:
.cfi_startproc
	stwu	%r1, -16(%r1)
.cfi_def_cfa_offset 16
	mflr	%r0
	stw	%r0, 20(%r1)
.cfi_offset 65, 4
	stw	%r13, 12(%r1)
.cfi_offset 13, -4
	lwz	%r13, 44(%r12)
	bl	method_getTypeEncoding
	lwz	%r13, 12(%r1)
	lwz	%r0, 20(%r1)
	addi	%r1, %r1, 16
.cfi_def_cfa_offset 0
	mtlr	%r0
.cfi_restore 65
	blr
.cfi_endproc
.type glue_method_getTypeEncoding, @function
.size glue_method_getTypeEncoding, .-glue_method_getTypeEncoding

.globl glue_class_copyIvarList
glue_class_copyIvarList:
.cfi_startproc
	stwu	%r1, -16(%r1)
.cfi_def_cfa_offset 16
	mflr	%r0
	stw	%r0, 20(%r1)
.cfi_offset 65, 4
	stw	%r13, 12(%r1)
.cfi_offset 13, -4
	lwz	%r13, 44(%r12)
	bl	class_copyIvarList
	lwz	%r13, 12(%r1)
	lwz	%r0, 20(%r1)
	addi	%r1, %r1, 16
.cfi_def_cfa_offset 0
	mtlr	%r0
.cfi_restore 65
	blr
.cfi_endproc
.type glue_class_copyIvarList, @function
.size glue_class_copyIvarList, .-glue_class_copyIvarList

.globl glue_ivar_getName
glue_ivar_getName:
.cfi_startproc
	stwu	%r1, -16(%r1)
.cfi_def_cfa_offset 16
	mflr	%r0
	stw	%r0, 20(%r1)
.cfi_offset 65, 4
	stw	%r13, 12(%r1)
.cfi_offset 13, -4
	lwz	%r13, 44(%r12)
	bl	ivar_getName
	lwz	%r13, 12(%r1)
	lwz	%r0, 20(%r1)
	addi	%r1, %r1, 16
.cfi_def_cfa_offset 0
	mtlr	%r0
.cfi_restore 65
	blr
.cfi_endproc
.type glue_ivar_getName, @function
.size glue_ivar_getName, .-glue_ivar_getName

.globl glue_ivar_getTypeEncoding
glue_ivar_getTypeEncoding:
.cfi_startproc
	stwu	%r1, -16(%r1)
.cfi_def_cfa_offset 16
	mflr	%r0
	stw	%r0, 20(%r1)
.cfi_offset 65, 4
	stw	%r13, 12(%r1)
.cfi_offset 13, -4
	lwz	%r13, 44(%r12)
	bl	ivar_getTypeEncoding
	lwz	%r13, 12(%r1)
	lwz	%r0, 20(%r1)
	addi	%r1, %r1, 16
.cfi_def_cfa_offset 0
	mtlr	%r0
.cfi_restore 65
	blr
.cfi_endproc
.type glue_ivar_getTypeEncoding, @function
.size glue_ivar_getTypeEncoding, .-glue_ivar_getTypeEncoding

.globl glue_ivar_getOffset
glue_ivar_getOffset:
.cfi_startproc
	stwu	%r1, -16(%r1)
.cfi_def_cfa_offset 16
	mflr	%r0
	stw	%r0, 20(%r1)
.cfi_offset 65, 4
	stw	%r13, 12(%r1)
.cfi_offset 13, -4
	lwz	%r13, 44(%r12)
	bl	ivar_getOffset
	lwz	%r13, 12(%r1)
	lwz	%r0, 20(%r1)
	addi	%r1, %r1, 16
.cfi_def_cfa_offset 0
	mtlr	%r0
.cfi_restore 65
	blr
.cfi_endproc
.type glue_ivar_getOffset, @function
.size glue_ivar_getOffset, .-glue_ivar_getOffset

.globl glue_class_copyPropertyList
glue_class_copyPropertyList:
.cfi_startproc
	stwu	%r1, -16(%r1)
.cfi_def_cfa_offset 16
	mflr	%r0
	stw	%r0, 20(%r1)
.cfi_offset 65, 4
	stw	%r13, 12(%r1)
.cfi_offset 13, -4
	lwz	%r13, 44(%r12)
	bl	class_copyPropertyList
	lwz	%r13, 12(%r1)
	lwz	%r0, 20(%r1)
	addi	%r1, %r1, 16
.cfi_def_cfa_offset 0
	mtlr	%r0
.cfi_restore 65
	blr
.cfi_endproc
.type glue_class_copyPropertyList, @function
.size glue_class_copyPropertyList, .-glue_class_copyPropertyList

.globl glue_property_getName
glue_property_getName:
.cfi_startproc
	stwu	%r1, -16(%r1)
.cfi_def_cfa_offset 16
	mflr	%r0
	stw	%r0, 20(%r1)
.cfi_offset 65, 4
	stw	%r13, 12(%r1)
.cfi_offset 13, -4
	lwz	%r13, 44(%r12)
	bl	property_getName
	lwz	%r13, 12(%r1)
	lwz	%r0, 20(%r1)
	addi	%r1, %r1, 16
.cfi_def_cfa_offset 0
	mtlr	%r0
.cfi_restore 65
	blr
.cfi_endproc
.type glue_property_getName, @function
.size glue_property_getName, .-glue_property_getName

.globl glue_property_copyAttributeValue
glue_property_copyAttributeValue:
.cfi_startproc
	stwu	%r1, -16(%r1)
.cfi_def_cfa_offset 16
	mflr	%r0
	stw	%r0, 20(%r1)
.cfi_offset 65, 4
	stw	%r13, 12(%r1)
.cfi_offset 13, -4
	lwz	%r13, 44(%r12)
	bl	property_copyAttributeValue
	lwz	%r13, 12(%r1)
	lwz	%r0, 20(%r1)
	addi	%r1, %r1, 16
.cfi_def_cfa_offset 0
	mtlr	%r0
.cfi_restore 65
	blr
.cfi_endproc
.type glue_property_copyAttributeValue, @function
.size glue_property_copyAttributeValue, .-glue_property_copyAttributeValue

.globl glue_objc_deinit
glue_objc_deinit:
.cfi_startproc
	stwu	%r1, -16(%r1)
.cfi_def_cfa_offset 16
	mflr	%r0
	stw	%r0, 20(%r1)
.cfi_offset 65, 4
	stw	%r13, 12(%r1)
.cfi_offset 13, -4
	lwz	%r13, 44(%r12)
	bl	objc_deinit
	lwz	%r13, 12(%r1)
	lwz	%r0, 20(%r1)
	addi	%r1, %r1, 16
.cfi_def_cfa_offset 0
	mtlr	%r0
.cfi_restore 65
	blr
.cfi_endproc
.type glue_objc_deinit, @function
.size glue_objc_deinit, .-glue_objc_deinit

.globl glue_objc_setUncaughtExceptionHandler
glue_objc_setUncaughtExceptionHandler:
.cfi_startproc
	stwu	%r1, -16(%r1)
.cfi_def_cfa_offset 16
	mflr	%r0
	stw	%r0, 20(%r1)
.cfi_offset 65, 4
	stw	%r13, 12(%r1)
.cfi_offset 13, -4
	lwz	%r13, 44(%r12)
	bl	objc_setUncaughtExceptionHandler
	lwz	%r13, 12(%r1)
	lwz	%r0, 20(%r1)
	addi	%r1, %r1, 16
.cfi_def_cfa_offset 0
	mtlr	%r0
.cfi_restore 65
	blr
.cfi_endproc
.type glue_objc_setUncaughtExceptionHandler, @function
.size glue_objc_setUncaughtExceptionHandler, .-glue_objc_setUncaughtExceptionHandler

.globl glue_objc_setForwardHandler
glue_objc_setForwardHandler:
.cfi_startproc
	stwu	%r1, -16(%r1)
.cfi_def_cfa_offset 16
	mflr	%r0
	stw	%r0, 20(%r1)
.cfi_offset 65, 4
	stw	%r13, 12(%r1)
.cfi_offset 13, -4
	lwz	%r13, 44(%r12)
	bl	objc_setForwardHandler
	lwz	%r13, 12(%r1)
	lwz	%r0, 20(%r1)
	addi	%r1, %r1, 16
.cfi_def_cfa_offset 0
	mtlr	%r0
.cfi_restore 65
	blr
.cfi_endproc
.type glue_objc_setForwardHandler, @function
.size glue_objc_setForwardHandler, .-glue_objc_setForwardHandler

.globl glue_objc_setEnumerationMutationHandler
glue_objc_setEnumerationMutationHandler:
.cfi_startproc
	stwu	%r1, -16(%r1)
.cfi_def_cfa_offset 16
	mflr	%r0
	stw	%r0, 20(%r1)
.cfi_offset 65, 4
	stw	%r13, 12(%r1)
.cfi_offset 13, -4
	lwz	%r13, 44(%r12)
	bl	objc_setEnumerationMutationHandler
	lwz	%r13, 12(%r1)
	lwz	%r0, 20(%r1)
	addi	%r1, %r1, 16
.cfi_def_cfa_offset 0
	mtlr	%r0
.cfi_restore 65
	blr
.cfi_endproc
.type glue_objc_setEnumerationMutationHandler, @function
.size glue_objc_setEnumerationMutationHandler, .-glue_objc_setEnumerationMutationHandler

.globl glue_objc_constructInstance
glue_objc_constructInstance:
.cfi_startproc
	stwu	%r1, -16(%r1)
.cfi_def_cfa_offset 16
	mflr	%r0
	stw	%r0, 20(%r1)
.cfi_offset 65, 4
	stw	%r13, 12(%r1)
.cfi_offset 13, -4
	lwz	%r13, 44(%r12)
	bl	objc_constructInstance
	lwz	%r13, 12(%r1)
	lwz	%r0, 20(%r1)
	addi	%r1, %r1, 16
.cfi_def_cfa_offset 0
	mtlr	%r0
.cfi_restore 65
	blr
.cfi_endproc
.type glue_objc_constructInstance, @function
.size glue_objc_constructInstance, .-glue_objc_constructInstance

.globl glue_objc_destructInstance
glue_objc_destructInstance:
.cfi_startproc
	stwu	%r1, -16(%r1)
.cfi_def_cfa_offset 16
	mflr	%r0
	stw	%r0, 20(%r1)
.cfi_offset 65, 4
	stw	%r13, 12(%r1)
.cfi_offset 13, -4
	lwz	%r13, 44(%r12)
	bl	objc_destructInstance
	lwz	%r13, 12(%r1)
	lwz	%r0, 20(%r1)
	addi	%r1, %r1, 16
.cfi_def_cfa_offset 0
	mtlr	%r0
.cfi_restore 65
	blr
.cfi_endproc
.type glue_objc_destructInstance, @function
.size glue_objc_destructInstance, .-glue_objc_destructInstance

.globl glue_class_createInstance
glue_class_createInstance:
.cfi_startproc
	stwu	%r1, -16(%r1)
.cfi_def_cfa_offset 16
	mflr	%r0
	stw	%r0, 20(%r1)
.cfi_offset 65, 4
	stw	%r13, 12(%r1)
.cfi_offset 13, -4
	lwz	%r13, 44(%r12)
	bl	class_createInstance
	lwz	%r13, 12(%r1)
	lwz	%r0, 20(%r1)
	addi	%r1, %r1, 16
.cfi_def_cfa_offset 0
	mtlr	%r0
.cfi_restore 65
	blr
.cfi_endproc
.type glue_class_createInstance, @function
.size glue_class_createInstance, .-glue_class_createInstance

.globl glue_object_dispose
glue_object_dispose:
.cfi_startproc
	stwu	%r1, -16(%r1)
.cfi_def_cfa_offset 16
	mflr	%r0
	stw	%r0, 20(%r1)
.cfi_offset 65, 4
	stw	%r13, 12(%r1)
.cfi_offset 13, -4
	lwz	%r13, 44(%r12)
	bl	object_dispose
	lwz	%r13, 12(%r1)
	lwz	%r0, 20(%r1)
	addi	%r1, %r1, 16
.cfi_def_cfa_offset 0
	mtlr	%r0
.cfi_restore 65
	blr
.cfi_endproc
.type glue_object_dispose, @function
.size glue_object_dispose, .-glue_object_dispose

.globl glue__objc_rootRetain
glue__objc_rootRetain:
.cfi_startproc
	stwu	%r1, -16(%r1)
.cfi_def_cfa_offset 16
	mflr	%r0
	stw	%r0, 20(%r1)
.cfi_offset 65, 4
	stw	%r13, 12(%r1)
.cfi_offset 13, -4
	lwz	%r13, 44(%r12)
	bl	_objc_rootRetain
	lwz	%r13, 12(%r1)
	lwz	%r0, 20(%r1)
	addi	%r1, %r1, 16
.cfi_def_cfa_offset 0
	mtlr	%r0
.cfi_restore 65
	blr
.cfi_endproc
.type glue__objc_rootRetain, @function
.size glue__objc_rootRetain, .-glue__objc_rootRetain

.globl glue__objc_rootRetainCount
glue__objc_rootRetainCount:
.cfi_startproc
	stwu	%r1, -16(%r1)
.cfi_def_cfa_offset 16
	mflr	%r0
	stw	%r0, 20(%r1)
.cfi_offset 65, 4
	stw	%r13, 12(%r1)
.cfi_offset 13, -4
	lwz	%r13, 44(%r12)
	bl	_objc_rootRetainCount
	lwz	%r13, 12(%r1)
	lwz	%r0, 20(%r1)
	addi	%r1, %r1, 16
.cfi_def_cfa_offset 0
	mtlr	%r0
.cfi_restore 65
	blr
.cfi_endproc
.type glue__objc_rootRetainCount, @function
.size glue__objc_rootRetainCount, .-glue__objc_rootRetainCount

.globl glue__objc_rootRelease
glue__objc_rootRelease:
.cfi_startproc
	stwu	%r1, -16(%r1)
.cfi_def_cfa_offset 16
	mflr	%r0
	stw	%r0, 20(%r1)
.cfi_offset 65, 4
	stw	%r13, 12(%r1)
.cfi_offset 13, -4
	lwz	%r13, 44(%r12)
	bl	_objc_rootRelease
	lwz	%r13, 12(%r1)
	lwz	%r0, 20(%r1)
	addi	%r1, %r1, 16
.cfi_def_cfa_offset 0
	mtlr	%r0
.cfi_restore 65
	blr
.cfi_endproc
.type glue__objc_rootRelease, @function
.size glue__objc_rootRelease, .-glue__objc_rootRelease

.globl glue_objc_autoreleasePoolPush
glue_objc_autoreleasePoolPush:
.cfi_startproc
	stwu	%r1, -16(%r1)
.cfi_def_cfa_offset 16
	mflr	%r0
	stw	%r0, 20(%r1)
.cfi_offset 65, 4
	stw	%r13, 12(%r1)
.cfi_offset 13, -4
	lwz	%r13, 44(%r12)
	bl	objc_autoreleasePoolPush
	lwz	%r13, 12(%r1)
	lwz	%r0, 20(%r1)
	addi	%r1, %r1, 16
.cfi_def_cfa_offset 0
	mtlr	%r0
.cfi_restore 65
	blr
.cfi_endproc
.type glue_objc_autoreleasePoolPush, @function
.size glue_objc_autoreleasePoolPush, .-glue_objc_autoreleasePoolPush

.globl glue_objc_autoreleasePoolPop
glue_objc_autoreleasePoolPop:
.cfi_startproc
	stwu	%r1, -16(%r1)
.cfi_def_cfa_offset 16
	mflr	%r0
	stw	%r0, 20(%r1)
.cfi_offset 65, 4
	stw	%r13, 12(%r1)
.cfi_offset 13, -4
	lwz	%r13, 44(%r12)
	bl	objc_autoreleasePoolPop
	lwz	%r13, 12(%r1)
	lwz	%r0, 20(%r1)
	addi	%r1, %r1, 16
.cfi_def_cfa_offset 0
	mtlr	%r0
.cfi_restore 65
	blr
.cfi_endproc
.type glue_objc_autoreleasePoolPop, @function
.size glue_objc_autoreleasePoolPop, .-glue_objc_autoreleasePoolPop

.globl glue__objc_rootAutorelease
glue__objc_rootAutorelease:
.cfi_startproc
	stwu	%r1, -16(%r1)
.cfi_def_cfa_offset 16
	mflr	%r0
	stw	%r0, 20(%r1)
.cfi_offset 65, 4
	stw	%r13, 12(%r1)
.cfi_offset 13, -4
	lwz	%r13, 44(%r12)
	bl	_objc_rootAutorelease
	lwz	%r13, 12(%r1)
	lwz	%r0, 20(%r1)
	addi	%r1, %r1, 16
.cfi_def_cfa_offset 0
	mtlr	%r0
.cfi_restore 65
	blr
.cfi_endproc
.type glue__objc_rootAutorelease, @function
.size glue__objc_rootAutorelease, .-glue__objc_rootAutorelease

.globl glue_objc_setTaggedPointerSecret
glue_objc_setTaggedPointerSecret:
.cfi_startproc
	stwu	%r1, -16(%r1)
.cfi_def_cfa_offset 16
	mflr	%r0
	stw	%r0, 20(%r1)
.cfi_offset 65, 4
	stw	%r13, 12(%r1)
.cfi_offset 13, -4
	lwz	%r13, 44(%r12)
	bl	objc_setTaggedPointerSecret
	lwz	%r13, 12(%r1)
	lwz	%r0, 20(%r1)
	addi	%r1, %r1, 16
.cfi_def_cfa_offset 0
	mtlr	%r0
.cfi_restore 65
	blr
.cfi_endproc
.type glue_objc_setTaggedPointerSecret, @function
.size glue_objc_setTaggedPointerSecret, .-glue_objc_setTaggedPointerSecret

.globl glue_objc_registerTaggedPointerClass
glue_objc_registerTaggedPointerClass:
.cfi_startproc
	stwu	%r1, -16(%r1)
.cfi_def_cfa_offset 16
	mflr	%r0
	stw	%r0, 20(%r1)
.cfi_offset 65, 4
	stw	%r13, 12(%r1)
.cfi_offset 13, -4
	lwz	%r13, 44(%r12)
	bl	objc_registerTaggedPointerClass
	lwz	%r13, 12(%r1)
	lwz	%r0, 20(%r1)
	addi	%r1, %r1, 16
.cfi_def_cfa_offset 0
	mtlr	%r0
.cfi_restore 65
	blr
.cfi_endproc
.type glue_objc_registerTaggedPointerClass, @function
.size glue_objc_registerTaggedPointerClass, .-glue_objc_registerTaggedPointerClass

.globl glue_object_isTaggedPointer
glue_object_isTaggedPointer:
.cfi_startproc
	stwu	%r1, -16(%r1)
.cfi_def_cfa_offset 16
	mflr	%r0
	stw	%r0, 20(%r1)
.cfi_offset 65, 4
	stw	%r13, 12(%r1)
.cfi_offset 13, -4
	lwz	%r13, 44(%r12)
	bl	object_isTaggedPointer
	lwz	%r13, 12(%r1)
	lwz	%r0, 20(%r1)
	addi	%r1, %r1, 16
.cfi_def_cfa_offset 0
	mtlr	%r0
.cfi_restore 65
	blr
.cfi_endproc
.type glue_object_isTaggedPointer, @function
.size glue_object_isTaggedPointer, .-glue_object_isTaggedPointer

.globl glue_object_getTaggedPointerValue
glue_object_getTaggedPointerValue:
.cfi_startproc
	stwu	%r1, -16(%r1)
.cfi_def_cfa_offset 16
	mflr	%r0
	stw	%r0, 20(%r1)
.cfi_offset 65, 4
	stw	%r13, 12(%r1)
.cfi_offset 13, -4
	lwz	%r13, 44(%r12)
	bl	object_getTaggedPointerValue
	lwz	%r13, 12(%r1)
	lwz	%r0, 20(%r1)
	addi	%r1, %r1, 16
.cfi_def_cfa_offset 0
	mtlr	%r0
.cfi_restore 65
	blr
.cfi_endproc
.type glue_object_getTaggedPointerValue, @function
.size glue_object_getTaggedPointerValue, .-glue_object_getTaggedPointerValue

.globl glue_objc_createTaggedPointer
glue_objc_createTaggedPointer:
.cfi_startproc
	stwu	%r1, -16(%r1)
.cfi_def_cfa_offset 16
	mflr	%r0
	stw	%r0, 20(%r1)
.cfi_offset 65, 4
	stw	%r13, 12(%r1)
.cfi_offset 13, -4
	lwz	%r13, 44(%r12)
	bl	objc_createTaggedPointer
	lwz	%r13, 12(%r1)
	lwz	%r0, 20(%r1)
	addi	%r1, %r1, 16
.cfi_def_cfa_offset 0
	mtlr	%r0
.cfi_restore 65
	blr
.cfi_endproc
.type glue_objc_createTaggedPointer, @function
.size glue_objc_createTaggedPointer, .-glue_objc_createTaggedPointer

.globl glue_objc_setAssociatedObject
glue_objc_setAssociatedObject:
.cfi_startproc
	stwu	%r1, -16(%r1)
.cfi_def_cfa_offset 16
	mflr	%r0
	stw	%r0, 20(%r1)
.cfi_offset 65, 4
	stw	%r13, 12(%r1)
.cfi_offset 13, -4
	lwz	%r13, 44(%r12)
	bl	objc_setAssociatedObject
	lwz	%r13, 12(%r1)
	lwz	%r0, 20(%r1)
	addi	%r1, %r1, 16
.cfi_def_cfa_offset 0
	mtlr	%r0
.cfi_restore 65
	blr
.cfi_endproc
.type glue_objc_setAssociatedObject, @function
.size glue_objc_setAssociatedObject, .-glue_objc_setAssociatedObject

.globl glue_objc_getAssociatedObject
glue_objc_getAssociatedObject:
.cfi_startproc
	stwu	%r1, -16(%r1)
.cfi_def_cfa_offset 16
	mflr	%r0
	stw	%r0, 20(%r1)
.cfi_offset 65, 4
	stw	%r13, 12(%r1)
.cfi_offset 13, -4
	lwz	%r13, 44(%r12)
	bl	objc_getAssociatedObject
	lwz	%r13, 12(%r1)
	lwz	%r0, 20(%r1)
	addi	%r1, %r1, 16
.cfi_def_cfa_offset 0
	mtlr	%r0
.cfi_restore 65
	blr
.cfi_endproc
.type glue_objc_getAssociatedObject, @function
.size glue_objc_getAssociatedObject, .-glue_objc_getAssociatedObject

.globl glue_objc_removeAssociatedObjects
glue_objc_removeAssociatedObjects:
.cfi_startproc
	stwu	%r1, -16(%r1)
.cfi_def_cfa_offset 16
	mflr	%r0
	stw	%r0, 20(%r1)
.cfi_offset 65, 4
	stw	%r13, 12(%r1)
.cfi_offset 13, -4
	lwz	%r13, 44(%r12)
	bl	objc_removeAssociatedObjects
	lwz	%r13, 12(%r1)
	lwz	%r0, 20(%r1)
	addi	%r1, %r1, 16
.cfi_def_cfa_offset 0
	mtlr	%r0
.cfi_restore 65
	blr
.cfi_endproc
.type glue_objc_removeAssociatedObjects, @function
.size glue_objc_removeAssociatedObjects, .-glue_objc_removeAssociatedObjects
